; Function Attrs: mustprogress uwtable
define void @Z3_disable_trace(ptr noundef %0) local_unnamed_addr #3 personality ptr @__gxx_personality_v0 {
  %2 = atomicrmw xchg ptr @g_z3_log_enabled, i8 0 seq_cst, align 1
  %3 = trunc i8 %2 to i1
  br i1 %3, label %4, label %_ZN10z3_log_ctxD2Ev.exit3

4:                                                ; preds = %1
  invoke void @_Z20log_Z3_disable_tracePKc(ptr noundef %0)
          to label %6 unwind label %_ZN10z3_log_ctxD2Ev.exit

_ZN10z3_log_ctxD2Ev.exit:                         ; preds = %4
  %5 = landingpad { ptr, i32 }
          cleanup
  store atomic i8 1, ptr @g_z3_log_enabled seq_cst, align 1
  resume { ptr, i32 } %5

6:                                                ; preds = %4
  store atomic i8 1, ptr @g_z3_log_enabled seq_cst, align 1
  br label %_ZN10z3_log_ctxD2Ev.exit3

_ZN10z3_log_ctxD2Ev.exit3:                        ; preds = %1, %6
  ret void
}